; Function Attrs: mustprogress nofree norecurse nosync nounwind ssp willreturn memory(argmem: readwrite) uwtable
define internal void @_ZN6open3d4core6kernelL26CPULogicalXorElementKernelIssEEvPKvS4_Pv(ptr noundef readonly captures(none) %0, ptr noundef readonly captures(none) %1, ptr noundef writeonly captures(none) initializes((0, 2)) %2) #15 {
  %4 = load i16, ptr %0, align 2, !tbaa !772
  %5 = icmp ne i16 %4, 0
  %6 = load i16, ptr %1, align 2, !tbaa !772
  %7 = icmp ne i16 %6, 0
  %8 = xor i1 %5, %7
  %9 = zext i1 %8 to i16
  store i16 %9, ptr %2, align 2, !tbaa !772
  ret void
}